target datalayout = "e-m:e-p270:32:32-p271:32:32-p272:64:64-i64:64-i128:128-f80:128-n8:16:32:64-S128"
target triple = "x86_64-unknown-linux-gnu"

%"class.std::__cxx11::basic_string" = type { %"struct.std::__cxx11::basic_string<char>::_Alloc_hider", i64, %union.anon }
%"struct.std::__cxx11::basic_string<char>::_Alloc_hider" = type { ptr }
%union.anon = type { i64, [8 x i8] }
%"class.base::Histogram::Factory" = type <{ ptr, ptr, i32, i32, i32, i32, i32, [4 x i8] }>
%"class.base::BucketRanges" = type <{ %"class.std::vector", i32, [4 x i8] }>
%"class.std::vector" = type { %"struct.std::_Vector_base" }
%"struct.std::_Vector_base" = type { %"struct.std::_Vector_base<int, std::allocator<int>>::_Vector_impl" }
%"struct.std::_Vector_base<int, std::allocator<int>>::_Vector_impl" = type { %"struct.std::_Vector_base<int, std::allocator<int>>::_Vector_impl_data" }
%"struct.std::_Vector_base<int, std::allocator<int>>::_Vector_impl_data" = type { ptr, ptr, ptr }
%"class.base::Histogram" = type <{ %"class.base::HistogramBase.base", [4 x i8], ptr, i32, i32, %"class.std::unique_ptr.24", %"class.std::unique_ptr.32", i8, [7 x i8] }>
%"class.base::HistogramBase.base" = type <{ ptr, %"class.std::__cxx11::basic_string", i32 }>
%"class.std::unique_ptr.24" = type { %"struct.std::__uniq_ptr_data.25" }
%"struct.std::__uniq_ptr_data.25" = type { %"class.std::__uniq_ptr_impl.26" }
%"class.std::__uniq_ptr_impl.26" = type { %"class.std::tuple.27" }
%"class.std::tuple.27" = type { %"struct.std::_Tuple_impl.28" }
%"struct.std::_Tuple_impl.28" = type { %"struct.std::_Head_base.31" }
%"struct.std::_Head_base.31" = type { ptr }
%"class.std::unique_ptr.32" = type { %"struct.std::__uniq_ptr_data.33" }
%"struct.std::__uniq_ptr_data.33" = type { %"class.std::__uniq_ptr_impl.34" }
%"class.std::__uniq_ptr_impl.34" = type { %"class.std::tuple.35" }
%"class.std::tuple.35" = type { %"struct.std::_Tuple_impl.36" }
%"struct.std::_Tuple_impl.36" = type { %"struct.std::_Head_base.39" }
%"struct.std::_Head_base.39" = type { ptr }
%"class.base::Histogram::Factory.base" = type <{ ptr, ptr, i32, i32, i32, i32, i32 }>
%"class.base::BooleanHistogram::Factory" = type { %"class.base::Histogram::Factory.base", [4 x i8] }

; Function Attrs: mustprogress nounwind uwtable
define linkonce_odr dso_local void @_ZN4base9Histogram7FactoryC2ERKNSt7__cxx1112basic_stringIcSt11char_traitsIcESaIcEEENS_13HistogramTypeEiiji(ptr noundef nonnull align 8 dereferenceable(36) %this, ptr noundef nonnull align 8 dereferenceable(32) %name, i32 noundef %histogram_type, i32 noundef %minimum, i32 noundef %maximum, i32 noundef %bucket_count, i32 noundef %flags) unnamed_addr #2 comdat align 2 {
entry:
  %this.addr = alloca ptr, align 8
  %name.addr = alloca ptr, align 8
  %histogram_type.addr = alloca i32, align 4
  %minimum.addr = alloca i32, align 4
  %maximum.addr = alloca i32, align 4
  %bucket_count.addr = alloca i32, align 4
  %flags.addr = alloca i32, align 4
  store ptr %this, ptr %this.addr, align 8
  store ptr %name, ptr %name.addr, align 8
  store i32 %histogram_type, ptr %histogram_type.addr, align 4
  store i32 %minimum, ptr %minimum.addr, align 4
  store i32 %maximum, ptr %maximum.addr, align 4
  store i32 %bucket_count, ptr %bucket_count.addr, align 4
  store i32 %flags, ptr %flags.addr, align 4
  %this1 = load ptr, ptr %this.addr, align 8
  store ptr getelementptr inbounds ({ [5 x ptr] }, ptr @_ZTVN4base9Histogram7FactoryE, i32 0, i32 0, i32 2), ptr %this1, align 8
  %name_ = getelementptr inbounds %"class.base::Histogram::Factory", ptr %this1, i32 0, i32 1
  %0 = load ptr, ptr %name.addr, align 8
  store ptr %0, ptr %name_, align 8
  %histogram_type_ = getelementptr inbounds %"class.base::Histogram::Factory", ptr %this1, i32 0, i32 2
  %1 = load i32, ptr %histogram_type.addr, align 4
  store i32 %1, ptr %histogram_type_, align 8
  %minimum_ = getelementptr inbounds %"class.base::Histogram::Factory", ptr %this1, i32 0, i32 3
  %2 = load i32, ptr %minimum.addr, align 4
  store i32 %2, ptr %minimum_, align 4
  %maximum_ = getelementptr inbounds %"class.base::Histogram::Factory", ptr %this1, i32 0, i32 4
  %3 = load i32, ptr %maximum.addr, align 4
  store i32 %3, ptr %maximum_, align 8
  %bucket_count_ = getelementptr inbounds %"class.base::Histogram::Factory", ptr %this1, i32 0, i32 5
  %4 = load i32, ptr %bucket_count.addr, align 4
  store i32 %4, ptr %bucket_count_, align 4
  %flags_ = getelementptr inbounds %"class.base::Histogram::Factory", ptr %this1, i32 0, i32 6
  %5 = load i32, ptr %flags.addr, align 4
  store i32 %5, ptr %flags_, align 8
  ret void
}

; Function Attrs: mustprogress nounwind uwtable
define linkonce_odr dso_local noundef i32 @_ZNK4base12BucketRanges8checksumEv(ptr noundef nonnull align 8 dereferenceable(28) %this) #2 comdat align 2 {
entry:
  %this.addr = alloca ptr, align 8
  store ptr %this, ptr %this.addr, align 8
  %this1 = load ptr, ptr %this.addr, align 8
  %checksum_ = getelementptr inbounds %"class.base::BucketRanges", ptr %this1, i32 0, i32 1
  %0 = load i32, ptr %checksum_, align 8
  ret i32 %0
}

; Function Attrs: mustprogress nounwind uwtable
define linkonce_odr dso_local noundef ptr @_ZNK4base9Histogram13bucket_rangesEv(ptr noundef nonnull align 8 dereferenceable(81) %this) #2 comdat align 2 {
entry:
  %this.addr = alloca ptr, align 8
  store ptr %this, ptr %this.addr, align 8
  %this1 = load ptr, ptr %this.addr, align 8
  %bucket_ranges_ = getelementptr inbounds %"class.base::Histogram", ptr %this1, i32 0, i32 2
  %0 = load ptr, ptr %bucket_ranges_, align 8
  ret ptr %0
}

; Function Attrs: mustprogress nounwind uwtable
define linkonce_odr dso_local void @_ZN4base16BooleanHistogram7FactoryC2ERKNSt7__cxx1112basic_stringIcSt11char_traitsIcESaIcEEEi(ptr noundef nonnull align 8 dereferenceable(36) %this, ptr noundef nonnull align 8 dereferenceable(32) %name, i32 noundef %flags) unnamed_addr #2 comdat align 2 {
entry:
  %this.addr = alloca ptr, align 8
  %name.addr = alloca ptr, align 8
  %flags.addr = alloca i32, align 4
  store ptr %this, ptr %this.addr, align 8
  store ptr %name, ptr %name.addr, align 8
  store i32 %flags, ptr %flags.addr, align 4
  %this1 = load ptr, ptr %this.addr, align 8
  %0 = load ptr, ptr %name.addr, align 8
  %1 = load i32, ptr %flags.addr, align 4
  call void @_ZN4base9Histogram7FactoryC2ERKNSt7__cxx1112basic_stringIcSt11char_traitsIcESaIcEEENS_13HistogramTypeEiiji(ptr noundef nonnull align 8 dereferenceable(36) %this1, ptr noundef nonnull align 8 dereferenceable(32) %0, i32 noundef 2, i32 noundef 1, i32 noundef 2, i32 noundef 3, i32 noundef %1)
  store ptr getelementptr inbounds ({ [5 x ptr] }, ptr @_ZTVN4base16BooleanHistogram7FactoryE, i32 0, i32 0, i32 2), ptr %this1, align 8
  ret void
}

; Function Attrs: mustprogress nounwind uwtable
define internal noundef zeroext i1 @_ZN4base12_GLOBAL__N_121ValidateRangeChecksumERKNS_13HistogramBaseEj(ptr noundef nonnull align 8 dereferenceable(44) %histogram, i32 noundef %range_checksum) #2 {
entry:
  %histogram.addr = alloca ptr, align 8
  %range_checksum.addr = alloca i32, align 4
  %casted_histogram = alloca ptr, align 8
  store ptr %histogram, ptr %histogram.addr, align 8
  store i32 %range_checksum, ptr %range_checksum.addr, align 4
  %0 = load ptr, ptr %histogram.addr, align 8
  store ptr %0, ptr %casted_histogram, align 8
  %1 = load ptr, ptr %casted_histogram, align 8
  %call = call noundef ptr @_ZNK4base9Histogram13bucket_rangesEv(ptr noundef nonnull align 8 dereferenceable(81) %1)
  %call1 = call noundef i32 @_ZNK4base12BucketRanges8checksumEv(ptr noundef nonnull align 8 dereferenceable(28) %call)
  %2 = load i32, ptr %range_checksum.addr, align 4
  %cmp = icmp eq i32 %call1, %2
  ret i1 %cmp
}

; Function Attrs: mustprogress uwtable
define dso_local noundef ptr @_ZN4base16BooleanHistogram10FactoryGetERKNSt7__cxx1112basic_stringIcSt11char_traitsIcESaIcEEEi(ptr noundef nonnull align 8 dereferenceable(32) %name, i32 noundef %flags) #0 align 2 {
entry:
  %name.addr = alloca ptr, align 8
  %flags.addr = alloca i32, align 4
  %ref.tmp = alloca %"class.base::BooleanHistogram::Factory", align 8
  store ptr %name, ptr %name.addr, align 8
  store i32 %flags, ptr %flags.addr, align 4
  %0 = load ptr, ptr %name.addr, align 8
  %1 = load i32, ptr %flags.addr, align 4
  call void @_ZN4base16BooleanHistogram7FactoryC2ERKNSt7__cxx1112basic_stringIcSt11char_traitsIcESaIcEEEi(ptr noundef nonnull align 8 dereferenceable(36) %ref.tmp, ptr noundef nonnull align 8 dereferenceable(32) %0, i32 noundef %1)
  %call = call noundef ptr @_ZN4base9Histogram7Factory5BuildEv(ptr noundef nonnull align 8 dereferenceable(36) %ref.tmp)
  ret ptr %call
}

; Function Attrs: mustprogress uwtable
define dso_local noundef ptr @_ZN4base16BooleanHistogram19DeserializeInfoImplEPNS_14PickleIteratorE(ptr noundef %iter) #0 align 2 personality ptr @__gxx_personality_v0 {
entry:
  %retval = alloca ptr, align 8
  %iter.addr = alloca ptr, align 8
  %histogram_name = alloca %"class.std::__cxx11::basic_string", align 8
  %flags = alloca i32, align 4
  %declared_min = alloca i32, align 4
  %declared_max = alloca i32, align 4
  %bucket_count = alloca i32, align 4
  %range_checksum = alloca i32, align 4
  %exn.slot = alloca ptr, align 8
  %ehselector.slot = alloca i32, align 4
  %cleanup.dest.slot = alloca i32, align 4
  %histogram = alloca ptr, align 8
  store ptr %iter, ptr %iter.addr, align 8
  call void @_ZNSt7__cxx1112basic_stringIcSt11char_traitsIcESaIcEEC1Ev(ptr noundef nonnull align 8 dereferenceable(32) %histogram_name) #12
  %0 = load ptr, ptr %iter.addr, align 8
  %call = invoke noundef zeroext i1 @_ZN4base12_GLOBAL__N_122ReadHistogramArgumentsEPNS_14PickleIteratorEPNSt7__cxx1112basic_stringIcSt11char_traitsIcESaIcEEEPiSA_SA_PjSB_(ptr noundef %0, ptr noundef %histogram_name, ptr noundef %flags, ptr noundef %declared_min, ptr noundef %declared_max, ptr noundef %bucket_count, ptr noundef %range_checksum)
          to label %invoke.cont unwind label %lpad

invoke.cont:                                      ; preds = %entry
  br i1 %call, label %if.end, label %if.then

if.then:                                          ; preds = %invoke.cont
  store ptr null, ptr %retval, align 8
  store i32 1, ptr %cleanup.dest.slot, align 4
  br label %cleanup

lpad:                                             ; preds = %invoke.cont1, %if.end, %entry
  %1 = landingpad { ptr, i32 }
          cleanup
  %2 = extractvalue { ptr, i32 } %1, 0
  store ptr %2, ptr %exn.slot, align 8
  %3 = extractvalue { ptr, i32 } %1, 1
  store i32 %3, ptr %ehselector.slot, align 4
  call void @_ZNSt7__cxx1112basic_stringIcSt11char_traitsIcESaIcEED1Ev(ptr noundef nonnull align 8 dereferenceable(32) %histogram_name) #12
  br label %eh.resume

if.end:                                           ; preds = %invoke.cont
  %4 = load i32, ptr %flags, align 4
  %call2 = invoke noundef ptr @_ZN4base16BooleanHistogram10FactoryGetERKNSt7__cxx1112basic_stringIcSt11char_traitsIcESaIcEEEi(ptr noundef nonnull align 8 dereferenceable(32) %histogram_name, i32 noundef %4)
          to label %invoke.cont1 unwind label %lpad

invoke.cont1:                                     ; preds = %if.end
  store ptr %call2, ptr %histogram, align 8
  %5 = load ptr, ptr %histogram, align 8
  %6 = load i32, ptr %range_checksum, align 4
  %call4 = invoke noundef zeroext i1 @_ZN4base12_GLOBAL__N_121ValidateRangeChecksumERKNS_13HistogramBaseEj(ptr noundef nonnull align 8 dereferenceable(44) %5, i32 noundef %6)
          to label %invoke.cont3 unwind label %lpad

invoke.cont3:                                     ; preds = %invoke.cont1
  br i1 %call4, label %if.end6, label %if.then5

if.then5:                                         ; preds = %invoke.cont3
  store ptr null, ptr %retval, align 8
  store i32 1, ptr %cleanup.dest.slot, align 4
  br label %cleanup

if.end6:                                          ; preds = %invoke.cont3
  %7 = load ptr, ptr %histogram, align 8
  store ptr %7, ptr %retval, align 8
  store i32 1, ptr %cleanup.dest.slot, align 4
  br label %cleanup

cleanup:                                          ; preds = %if.end6, %if.then5, %if.then
  call void @_ZNSt7__cxx1112basic_stringIcSt11char_traitsIcESaIcEED1Ev(ptr noundef nonnull align 8 dereferenceable(32) %histogram_name) #12
  %8 = load ptr, ptr %retval, align 8
  ret ptr %8

eh.resume:                                        ; preds = %lpad
  %exn = load ptr, ptr %exn.slot, align 8
  %sel = load i32, ptr %ehselector.slot, align 4
  %lpad.val = insertvalue { ptr, i32 } poison, ptr %exn, 0
  %lpad.val7 = insertvalue { ptr, i32 } %lpad.val, i32 %sel, 1
  resume { ptr, i32 } %lpad.val7
}