; Function Attrs: mustprogress uwtable
define dso_local noundef ptr @_ZN4base16BooleanHistogram19DeserializeInfoImplEPNS_14PickleIteratorE(ptr noundef %iter) local_unnamed_addr #0 align 2 personality ptr @__gxx_personality_v0 {
entry:
  %ref.tmp.i = alloca %"class.base::BooleanHistogram::Factory", align 8
  %histogram_name = alloca %"class.std::__cxx11::basic_string", align 8
  %flags = alloca i32, align 4
  %declared_min = alloca i32, align 4
  %declared_max = alloca i32, align 4
  %bucket_count = alloca i32, align 4
  %range_checksum = alloca i32, align 4
  call void @_ZNSt7__cxx1112basic_stringIcSt11char_traitsIcESaIcEEC1Ev(ptr noundef nonnull align 8 dereferenceable(32) %histogram_name) #19
  %call = invoke fastcc noundef zeroext i1 @_ZN4base12_GLOBAL__N_122ReadHistogramArgumentsEPNS_14PickleIteratorEPNSt7__cxx1112basic_stringIcSt11char_traitsIcESaIcEEEPiSA_SA_PjSB_(ptr noundef %iter, ptr noundef nonnull %histogram_name, ptr noundef nonnull %flags, ptr noundef nonnull %declared_min, ptr noundef nonnull %declared_max, ptr noundef nonnull %bucket_count, ptr noundef nonnull %range_checksum)
          to label %invoke.cont unwind label %lpad

invoke.cont:                                      ; preds = %entry
  br i1 %call, label %if.end, label %cleanup

lpad:                                             ; preds = %if.end, %entry
  %0 = landingpad { ptr, i32 }
          cleanup
  call void @_ZNSt7__cxx1112basic_stringIcSt11char_traitsIcESaIcEED1Ev(ptr noundef nonnull align 8 dereferenceable(32) %histogram_name) #19
  resume { ptr, i32 } %0

if.end:                                           ; preds = %invoke.cont
  %1 = load i32, ptr %flags, align 4
  call void @llvm.lifetime.start.p0(i64 40, ptr nonnull %ref.tmp.i)
  %name_.i.i.i = getelementptr inbounds i8, ptr %ref.tmp.i, i64 8
  store ptr %histogram_name, ptr %name_.i.i.i, align 8
  %histogram_type_.i.i.i = getelementptr inbounds i8, ptr %ref.tmp.i, i64 16
  store <4 x i32> <i32 2, i32 1, i32 2, i32 3>, ptr %histogram_type_.i.i.i, align 8
  %flags_.i.i.i = getelementptr inbounds i8, ptr %ref.tmp.i, i64 32
  store i32 %1, ptr %flags_.i.i.i, align 8
  store ptr getelementptr inbounds ({ [5 x ptr] }, ptr @_ZTVN4base16BooleanHistogram7FactoryE, i64 0, i32 0, i64 2), ptr %ref.tmp.i, align 8
  %call.i2 = invoke noundef ptr @_ZN4base9Histogram7Factory5BuildEv(ptr noundef nonnull align 8 dereferenceable(36) %ref.tmp.i)
          to label %invoke.cont1 unwind label %lpad

invoke.cont1:                                     ; preds = %if.end
  call void @llvm.lifetime.end.p0(i64 40, ptr nonnull %ref.tmp.i)
  %2 = load i32, ptr %range_checksum, align 4
  %3 = getelementptr i8, ptr %call.i2, i64 48
  %call2.val = load ptr, ptr %3, align 8
  %4 = getelementptr i8, ptr %call2.val, i64 24
  %call2.val.val = load i32, ptr %4, align 8
  %cmp.i = icmp eq i32 %call2.val.val, %2
  %call2. = select i1 %cmp.i, ptr %call.i2, ptr null
  br label %cleanup

cleanup:                                          ; preds = %invoke.cont1, %invoke.cont
  %retval.0 = phi ptr [ null, %invoke.cont ], [ %call2., %invoke.cont1 ]
  call void @_ZNSt7__cxx1112basic_stringIcSt11char_traitsIcESaIcEED1Ev(ptr noundef nonnull align 8 dereferenceable(32) %histogram_name) #19
  ret ptr %retval.0
}